target datalayout = "e-m:e-p270:32:32-p271:32:32-p272:64:64-i64:64-i128:128-f80:128-n8:16:32:64-S128"
target triple = "x86_64-pc-linux-gnu"

%struct.Gia_Obj_t_ = type <{ i64, i32 }>
%struct.Vec_Int_t_ = type { i32, i32, ptr }
%struct.Gia_Man_t_ = type { ptr, ptr, i32, i32, i32, i32, ptr, ptr, i32, i32, i32, ptr, ptr, %struct.Vec_Int_t_, %struct.Vec_Int_t_, i32, i32, i32, %struct.Vec_Int_t_, ptr, ptr, ptr, i32, i32, i32, i32, ptr, ptr, ptr, ptr, ptr, i32, i32, ptr, i32, ptr, ptr, ptr, ptr, ptr, ptr, ptr, ptr, ptr, ptr, ptr, ptr, ptr, ptr, ptr, ptr, ptr, ptr, %struct.Vec_Int_t_, %struct.Vec_Int_t_, ptr, ptr, ptr, ptr, ptr, ptr, ptr, ptr, ptr, ptr, ptr, ptr, ptr, ptr, ptr, ptr, ptr, ptr, ptr, ptr, ptr, i32, float, float, ptr, ptr, i32, ptr, ptr, ptr, ptr, ptr, ptr, ptr, ptr, ptr, ptr, ptr, ptr, ptr, ptr, ptr, i64, i64, ptr, ptr, i32, i32, i32, i32, i32, i32, i32, i32, i32, i32, i32, i32, ptr, ptr, ptr, ptr, ptr, ptr, ptr, ptr, i32, i32, i32, ptr, i32, i32, ptr, ptr, ptr, ptr, ptr, ptr, i32, i32, ptr, %struct.Vec_Int_t_, %struct.Vec_Int_t_, %struct.Vec_Int_t_, ptr, ptr, ptr, i32, i32, i32, i32, ptr, ptr, ptr, ptr, ptr }

; Function Attrs: inlinehint nounwind uwtable
define internal i32 @Gia_ObjId(ptr noundef %0, ptr noundef %1) #2 {
  %3 = alloca ptr, align 8
  %4 = alloca ptr, align 8
  store ptr %0, ptr %3, align 8, !tbaa !3
  store ptr %1, ptr %4, align 8, !tbaa !12
  %5 = load ptr, ptr %4, align 8, !tbaa !12
  %6 = load ptr, ptr %3, align 8, !tbaa !3
  %7 = getelementptr inbounds nuw %struct.Gia_Man_t_, ptr %6, i32 0, i32 6
  %8 = load ptr, ptr %7, align 8, !tbaa !19
  %9 = ptrtoint ptr %5 to i64
  %10 = ptrtoint ptr %8 to i64
  %11 = sub i64 %9, %10
  %12 = sdiv exact i64 %11, 12
  %13 = trunc i64 %12 to i32
  ret i32 %13
}

; Function Attrs: inlinehint nounwind uwtable
define internal i32 @Gia_ObjFaninC1(ptr noundef %0) #2 {
  %2 = alloca ptr, align 8
  store ptr %0, ptr %2, align 8, !tbaa !12
  %3 = load ptr, ptr %2, align 8, !tbaa !12
  %4 = load i64, ptr %3, align 4
  %5 = lshr i64 %4, 61
  %6 = and i64 %5, 1
  %7 = trunc i64 %6 to i32
  ret i32 %7
}

; Function Attrs: inlinehint nounwind uwtable
define internal ptr @Gia_ObjFanin1(ptr noundef %0) #2 {
  %2 = alloca ptr, align 8
  store ptr %0, ptr %2, align 8, !tbaa !12
  %3 = load ptr, ptr %2, align 8, !tbaa !12
  %4 = load ptr, ptr %2, align 8, !tbaa !12
  %5 = load i64, ptr %4, align 4
  %6 = lshr i64 %5, 32
  %7 = and i64 %6, 536870911
  %8 = trunc i64 %7 to i32
  %9 = sext i32 %8 to i64
  %10 = sub i64 0, %9
  %11 = getelementptr inbounds %struct.Gia_Obj_t_, ptr %3, i64 %10
  ret ptr %11
}

; Function Attrs: inlinehint nounwind uwtable
define internal i32 @Gia_ObjFaninC0(ptr noundef %0) #2 {
  %2 = alloca ptr, align 8
  store ptr %0, ptr %2, align 8, !tbaa !12
  %3 = load ptr, ptr %2, align 8, !tbaa !12
  %4 = load i64, ptr %3, align 4
  %5 = lshr i64 %4, 29
  %6 = and i64 %5, 1
  %7 = trunc i64 %6 to i32
  ret i32 %7
}

; Function Attrs: inlinehint nounwind uwtable
define internal ptr @Gia_ObjFanin0(ptr noundef %0) #2 {
  %2 = alloca ptr, align 8
  store ptr %0, ptr %2, align 8, !tbaa !12
  %3 = load ptr, ptr %2, align 8, !tbaa !12
  %4 = load ptr, ptr %2, align 8, !tbaa !12
  %5 = load i64, ptr %4, align 4
  %6 = and i64 %5, 536870911
  %7 = trunc i64 %6 to i32
  %8 = sext i32 %7 to i64
  %9 = sub i64 0, %8
  %10 = getelementptr inbounds %struct.Gia_Obj_t_, ptr %3, i64 %9
  ret ptr %10
}

; Function Attrs: inlinehint nounwind uwtable
define internal i32 @Gia_ObjIsAnd(ptr noundef %0) #2 {
  %2 = alloca ptr, align 8
  store ptr %0, ptr %2, align 8, !tbaa !12
  %3 = load ptr, ptr %2, align 8, !tbaa !12
  %4 = load i64, ptr %3, align 4
  %5 = lshr i64 %4, 31
  %6 = and i64 %5, 1
  %7 = trunc i64 %6 to i32
  %8 = icmp ne i32 %7, 0
  br i1 %8, label %15, label %9

9:                                                ; preds = %1
  %10 = load ptr, ptr %2, align 8, !tbaa !12
  %11 = load i64, ptr %10, align 4
  %12 = and i64 %11, 536870911
  %13 = trunc i64 %12 to i32
  %14 = icmp ne i32 %13, 536870911
  br label %15

15:                                               ; preds = %9, %1
  %16 = phi i1 [ false, %1 ], [ %14, %9 ]
  %17 = zext i1 %16 to i32
  ret i32 %17
}

; Function Attrs: inlinehint nounwind uwtable
define internal i32 @Abc_LitNotCond(i32 noundef %0, i32 noundef %1) #2 {
  %3 = alloca i32, align 4
  %4 = alloca i32, align 4
  store i32 %0, ptr %3, align 4, !tbaa !8
  store i32 %1, ptr %4, align 4, !tbaa !8
  %5 = load i32, ptr %3, align 4, !tbaa !8
  %6 = load i32, ptr %4, align 4, !tbaa !8
  %7 = icmp sgt i32 %6, 0
  %8 = zext i1 %7 to i32
  %9 = xor i32 %5, %8
  ret i32 %9
}

; Function Attrs: inlinehint nounwind uwtable
define internal i32 @Abc_LitIsCompl(i32 noundef %0) #2 {
  %2 = alloca i32, align 4
  store i32 %0, ptr %2, align 4, !tbaa !8
  %3 = load i32, ptr %2, align 4, !tbaa !8
  %4 = and i32 %3, 1
  ret i32 %4
}

; Function Attrs: inlinehint nounwind uwtable
define internal i32 @Gia_ManAppendXorReal(ptr noundef %0, i32 noundef %1, i32 noundef %2) #2 {
  %4 = alloca ptr, align 8
  %5 = alloca i32, align 4
  %6 = alloca i32, align 4
  %7 = alloca ptr, align 8
  store ptr %0, ptr %4, align 8, !tbaa !3
  store i32 %1, ptr %5, align 4, !tbaa !8
  store i32 %2, ptr %6, align 4, !tbaa !8
  call void @llvm.lifetime.start.p0(i64 8, ptr %7) #11
  %8 = load ptr, ptr %4, align 8, !tbaa !3
  %9 = call ptr @Gia_ManAppendObj(ptr noundef %8)
  store ptr %9, ptr %7, align 8, !tbaa !12
  %10 = load i32, ptr %5, align 4, !tbaa !8
  %11 = call i32 @Abc_Lit2Var(i32 noundef %10)
  %12 = load i32, ptr %6, align 4, !tbaa !8
  %13 = call i32 @Abc_Lit2Var(i32 noundef %12)
  %14 = icmp sgt i32 %11, %13
  br i1 %14, label %15, label %59

15:                                               ; preds = %3
  %16 = load ptr, ptr %4, align 8, !tbaa !3
  %17 = load ptr, ptr %7, align 8, !tbaa !12
  %18 = call i32 @Gia_ObjId(ptr noundef %16, ptr noundef %17)
  %19 = load i32, ptr %5, align 4, !tbaa !8
  %20 = call i32 @Abc_Lit2Var(i32 noundef %19)
  %21 = sub nsw i32 %18, %20
  %22 = load ptr, ptr %7, align 8, !tbaa !12
  %23 = zext i32 %21 to i64
  %24 = load i64, ptr %22, align 4
  %25 = and i64 %23, 536870911
  %26 = and i64 %24, -536870912
  %27 = or i64 %26, %25
  store i64 %27, ptr %22, align 4
  %28 = load i32, ptr %5, align 4, !tbaa !8
  %29 = call i32 @Abc_LitIsCompl(i32 noundef %28)
  %30 = load ptr, ptr %7, align 8, !tbaa !12
  %31 = zext i32 %29 to i64
  %32 = load i64, ptr %30, align 4
  %33 = and i64 %31, 1
  %34 = shl i64 %33, 29
  %35 = and i64 %32, -536870913
  %36 = or i64 %35, %34
  store i64 %36, ptr %30, align 4
  %37 = load ptr, ptr %4, align 8, !tbaa !3
  %38 = load ptr, ptr %7, align 8, !tbaa !12
  %39 = call i32 @Gia_ObjId(ptr noundef %37, ptr noundef %38)
  %40 = load i32, ptr %6, align 4, !tbaa !8
  %41 = call i32 @Abc_Lit2Var(i32 noundef %40)
  %42 = sub nsw i32 %39, %41
  %43 = load ptr, ptr %7, align 8, !tbaa !12
  %44 = zext i32 %42 to i64
  %45 = load i64, ptr %43, align 4
  %46 = and i64 %44, 536870911
  %47 = shl i64 %46, 32
  %48 = and i64 %45, -2305843004918726657
  %49 = or i64 %48, %47
  store i64 %49, ptr %43, align 4
  %50 = load i32, ptr %6, align 4, !tbaa !8
  %51 = call i32 @Abc_LitIsCompl(i32 noundef %50)
  %52 = load ptr, ptr %7, align 8, !tbaa !12
  %53 = zext i32 %51 to i64
  %54 = load i64, ptr %52, align 4
  %55 = and i64 %53, 1
  %56 = shl i64 %55, 61
  %57 = and i64 %54, -2305843009213693953
  %58 = or i64 %57, %56
  store i64 %58, ptr %52, align 4
  br label %103

59:                                               ; preds = %3
  %60 = load ptr, ptr %4, align 8, !tbaa !3
  %61 = load ptr, ptr %7, align 8, !tbaa !12
  %62 = call i32 @Gia_ObjId(ptr noundef %60, ptr noundef %61)
  %63 = load i32, ptr %5, align 4, !tbaa !8
  %64 = call i32 @Abc_Lit2Var(i32 noundef %63)
  %65 = sub nsw i32 %62, %64
  %66 = load ptr, ptr %7, align 8, !tbaa !12
  %67 = zext i32 %65 to i64
  %68 = load i64, ptr %66, align 4
  %69 = and i64 %67, 536870911
  %70 = shl i64 %69, 32
  %71 = and i64 %68, -2305843004918726657
  %72 = or i64 %71, %70
  store i64 %72, ptr %66, align 4
  %73 = load i32, ptr %5, align 4, !tbaa !8
  %74 = call i32 @Abc_LitIsCompl(i32 noundef %73)
  %75 = load ptr, ptr %7, align 8, !tbaa !12
  %76 = zext i32 %74 to i64
  %77 = load i64, ptr %75, align 4
  %78 = and i64 %76, 1
  %79 = shl i64 %78, 61
  %80 = and i64 %77, -2305843009213693953
  %81 = or i64 %80, %79
  store i64 %81, ptr %75, align 4
  %82 = load ptr, ptr %4, align 8, !tbaa !3
  %83 = load ptr, ptr %7, align 8, !tbaa !12
  %84 = call i32 @Gia_ObjId(ptr noundef %82, ptr noundef %83)
  %85 = load i32, ptr %6, align 4, !tbaa !8
  %86 = call i32 @Abc_Lit2Var(i32 noundef %85)
  %87 = sub nsw i32 %84, %86
  %88 = load ptr, ptr %7, align 8, !tbaa !12
  %89 = zext i32 %87 to i64
  %90 = load i64, ptr %88, align 4
  %91 = and i64 %89, 536870911
  %92 = and i64 %90, -536870912
  %93 = or i64 %92, %91
  store i64 %93, ptr %88, align 4
  %94 = load i32, ptr %6, align 4, !tbaa !8
  %95 = call i32 @Abc_LitIsCompl(i32 noundef %94)
  %96 = load ptr, ptr %7, align 8, !tbaa !12
  %97 = zext i32 %95 to i64
  %98 = load i64, ptr %96, align 4
  %99 = and i64 %97, 1
  %100 = shl i64 %99, 29
  %101 = and i64 %98, -536870913
  %102 = or i64 %101, %100
  store i64 %102, ptr %96, align 4
  br label %103

103:                                              ; preds = %59, %15
  %104 = load ptr, ptr %4, align 8, !tbaa !3
  %105 = getelementptr inbounds nuw %struct.Gia_Man_t_, ptr %104, i32 0, i32 8
  %106 = load i32, ptr %105, align 8, !tbaa !35
  %107 = add nsw i32 %106, 1
  store i32 %107, ptr %105, align 8, !tbaa !35
  %108 = load ptr, ptr %4, align 8, !tbaa !3
  %109 = load ptr, ptr %7, align 8, !tbaa !12
  %110 = call i32 @Gia_ObjId(ptr noundef %108, ptr noundef %109)
  %111 = shl i32 %110, 1
  call void @llvm.lifetime.end.p0(i64 8, ptr %7) #11
  ret i32 %111
}

; Function Attrs: inlinehint nounwind uwtable
define internal i32 @Gia_ObjFanin1Copy(ptr noundef %0) #2 {
  %2 = alloca ptr, align 8
  store ptr %0, ptr %2, align 8, !tbaa !12
  %3 = load ptr, ptr %2, align 8, !tbaa !12
  %4 = call ptr @Gia_ObjFanin1(ptr noundef %3)
  %5 = getelementptr inbounds nuw %struct.Gia_Obj_t_, ptr %4, i32 0, i32 1
  %6 = load i32, ptr %5, align 4, !tbaa !14
  %7 = load ptr, ptr %2, align 8, !tbaa !12
  %8 = call i32 @Gia_ObjFaninC1(ptr noundef %7)
  %9 = call i32 @Abc_LitNotCond(i32 noundef %6, i32 noundef %8)
  ret i32 %9
}

; Function Attrs: inlinehint nounwind uwtable
define internal i32 @Gia_ObjFanin0Copy(ptr noundef %0) #2 {
  %2 = alloca ptr, align 8
  store ptr %0, ptr %2, align 8, !tbaa !12
  %3 = load ptr, ptr %2, align 8, !tbaa !12
  %4 = call ptr @Gia_ObjFanin0(ptr noundef %3)
  %5 = getelementptr inbounds nuw %struct.Gia_Obj_t_, ptr %4, i32 0, i32 1
  %6 = load i32, ptr %5, align 4, !tbaa !14
  %7 = load ptr, ptr %2, align 8, !tbaa !12
  %8 = call i32 @Gia_ObjFaninC0(ptr noundef %7)
  %9 = call i32 @Abc_LitNotCond(i32 noundef %6, i32 noundef %8)
  ret i32 %9
}

; Function Attrs: inlinehint nounwind uwtable
define internal i32 @Gia_ObjIsXor(ptr noundef %0) #2 {
  %2 = alloca ptr, align 8
  store ptr %0, ptr %2, align 8, !tbaa !12
  %3 = load ptr, ptr %2, align 8, !tbaa !12
  %4 = call i32 @Gia_ObjIsAnd(ptr noundef %3)
  %5 = icmp ne i32 %4, 0
  br i1 %5, label %6, label %17

6:                                                ; preds = %1
  %7 = load ptr, ptr %2, align 8, !tbaa !12
  %8 = load i64, ptr %7, align 4
  %9 = and i64 %8, 536870911
  %10 = trunc i64 %9 to i32
  %11 = load ptr, ptr %2, align 8, !tbaa !12
  %12 = load i64, ptr %11, align 4
  %13 = lshr i64 %12, 32
  %14 = and i64 %13, 536870911
  %15 = trunc i64 %14 to i32
  %16 = icmp slt i32 %10, %15
  br label %17

17:                                               ; preds = %6, %1
  %18 = phi i1 [ false, %1 ], [ %16, %6 ]
  %19 = zext i1 %18 to i32
  ret i32 %19
}

; Function Attrs: inlinehint nounwind uwtable
define internal i32 @Gia_ObjFaninId1(ptr noundef %0, i32 noundef %1) #2 {
  %3 = alloca ptr, align 8
  %4 = alloca i32, align 4
  store ptr %0, ptr %3, align 8, !tbaa !12
  store i32 %1, ptr %4, align 4, !tbaa !8
  %5 = load i32, ptr %4, align 4, !tbaa !8
  %6 = load ptr, ptr %3, align 8, !tbaa !12
  %7 = load i64, ptr %6, align 4
  %8 = lshr i64 %7, 32
  %9 = and i64 %8, 536870911
  %10 = trunc i64 %9 to i32
  %11 = sub nsw i32 %5, %10
  ret i32 %11
}

; Function Attrs: inlinehint nounwind uwtable
define internal i32 @Gia_ObjFaninId0(ptr noundef %0, i32 noundef %1) #2 {
  %3 = alloca ptr, align 8
  %4 = alloca i32, align 4
  store ptr %0, ptr %3, align 8, !tbaa !12
  store i32 %1, ptr %4, align 4, !tbaa !8
  %5 = load i32, ptr %4, align 4, !tbaa !8
  %6 = load ptr, ptr %3, align 8, !tbaa !12
  %7 = load i64, ptr %6, align 4
  %8 = and i64 %7, 536870911
  %9 = trunc i64 %8 to i32
  %10 = sub nsw i32 %5, %9
  ret i32 %10
}

; Function Attrs: inlinehint nounwind uwtable
define internal ptr @Gia_ManObj(ptr noundef %0, i32 noundef %1) #2 {
  %3 = alloca ptr, align 8
  %4 = alloca i32, align 4
  store ptr %0, ptr %3, align 8, !tbaa !3
  store i32 %1, ptr %4, align 4, !tbaa !8
  %5 = load ptr, ptr %3, align 8, !tbaa !3
  %6 = getelementptr inbounds nuw %struct.Gia_Man_t_, ptr %5, i32 0, i32 6
  %7 = load ptr, ptr %6, align 8, !tbaa !19
  %8 = load i32, ptr %4, align 4, !tbaa !8
  %9 = sext i32 %8 to i64
  %10 = getelementptr inbounds %struct.Gia_Obj_t_, ptr %7, i64 %9
  ret ptr %10
}

; Function Attrs: inlinehint nounwind uwtable
define internal i32 @Abc_Lit2Var(i32 noundef %0) #2 {
  %2 = alloca i32, align 4
  store i32 %0, ptr %2, align 4, !tbaa !8
  %3 = load i32, ptr %2, align 4, !tbaa !8
  %4 = ashr i32 %3, 1
  ret i32 %4
}

; Function Attrs: inlinehint nounwind uwtable
define internal i32 @Vec_IntEntry(ptr noundef %0, i32 noundef %1) #2 {
  %3 = alloca ptr, align 8
  %4 = alloca i32, align 4
  store ptr %0, ptr %3, align 8, !tbaa !10
  store i32 %1, ptr %4, align 4, !tbaa !8
  %5 = load ptr, ptr %3, align 8, !tbaa !10
  %6 = getelementptr inbounds nuw %struct.Vec_Int_t_, ptr %5, i32 0, i32 2
  %7 = load ptr, ptr %6, align 8, !tbaa !16
  %8 = load i32, ptr %4, align 4, !tbaa !8
  %9 = sext i32 %8 to i64
  %10 = getelementptr inbounds i32, ptr %7, i64 %9
  %11 = load i32, ptr %10, align 4, !tbaa !8
  ret i32 %11
}

; Function Attrs: nounwind uwtable
define void @Acec_ManDerive_rec(ptr noundef %0, ptr noundef %1, i32 noundef %2, ptr noundef %3) #0 {
  %5 = alloca ptr, align 8
  %6 = alloca ptr, align 8
  %7 = alloca i32, align 4
  %8 = alloca ptr, align 8
  %9 = alloca ptr, align 8
  %10 = alloca i32, align 4
  store ptr %0, ptr %5, align 8, !tbaa !3
  store ptr %1, ptr %6, align 8, !tbaa !3
  store i32 %2, ptr %7, align 4, !tbaa !8
  store ptr %3, ptr %8, align 8, !tbaa !10
  call void @llvm.lifetime.start.p0(i64 8, ptr %9) #11
  call void @llvm.lifetime.start.p0(i64 4, ptr %10) #11
  %11 = load i32, ptr %7, align 4, !tbaa !8
  store i32 %11, ptr %10, align 4, !tbaa !8
  %12 = load ptr, ptr %8, align 8, !tbaa !10
  %13 = load i32, ptr %7, align 4, !tbaa !8
  %14 = call i32 @Vec_IntEntry(ptr noundef %12, i32 noundef %13)
  %15 = icmp sge i32 %14, 0
  br i1 %15, label %16, label %21

16:                                               ; preds = %4
  %17 = load ptr, ptr %8, align 8, !tbaa !10
  %18 = load i32, ptr %7, align 4, !tbaa !8
  %19 = call i32 @Vec_IntEntry(ptr noundef %17, i32 noundef %18)
  %20 = call i32 @Abc_Lit2Var(i32 noundef %19)
  store i32 %20, ptr %10, align 4, !tbaa !8
  br label %21

21:                                               ; preds = %16, %4
  %22 = load ptr, ptr %6, align 8, !tbaa !3
  %23 = load i32, ptr %10, align 4, !tbaa !8
  %24 = call ptr @Gia_ManObj(ptr noundef %22, i32 noundef %23)
  store ptr %24, ptr %9, align 8, !tbaa !12
  %25 = load ptr, ptr %9, align 8, !tbaa !12
  %26 = getelementptr inbounds nuw %struct.Gia_Obj_t_, ptr %25, i32 0, i32 1
  %27 = load i32, ptr %26, align 4, !tbaa !14
  %28 = xor i32 %27, -1
  %29 = icmp ne i32 %28, 0
  br i1 %29, label %65, label %30

30:                                               ; preds = %21
  %31 = load ptr, ptr %5, align 8, !tbaa !3
  %32 = load ptr, ptr %6, align 8, !tbaa !3
  %33 = load ptr, ptr %9, align 8, !tbaa !12
  %34 = load i32, ptr %10, align 4, !tbaa !8
  %35 = call i32 @Gia_ObjFaninId0(ptr noundef %33, i32 noundef %34)
  %36 = load ptr, ptr %8, align 8, !tbaa !10
  call void @Acec_ManDerive_rec(ptr noundef %31, ptr noundef %32, i32 noundef %35, ptr noundef %36)
  %37 = load ptr, ptr %5, align 8, !tbaa !3
  %38 = load ptr, ptr %6, align 8, !tbaa !3
  %39 = load ptr, ptr %9, align 8, !tbaa !12
  %40 = load i32, ptr %10, align 4, !tbaa !8
  %41 = call i32 @Gia_ObjFaninId1(ptr noundef %39, i32 noundef %40)
  %42 = load ptr, ptr %8, align 8, !tbaa !10
  call void @Acec_ManDerive_rec(ptr noundef %37, ptr noundef %38, i32 noundef %41, ptr noundef %42)
  %43 = load ptr, ptr %9, align 8, !tbaa !12
  %44 = call i32 @Gia_ObjIsXor(ptr noundef %43)
  %45 = icmp ne i32 %44, 0
  br i1 %45, label %46, label %55

46:                                               ; preds = %30
  %47 = load ptr, ptr %5, align 8, !tbaa !3
  %48 = load ptr, ptr %9, align 8, !tbaa !12
  %49 = call i32 @Gia_ObjFanin0Copy(ptr noundef %48)
  %50 = load ptr, ptr %9, align 8, !tbaa !12
  %51 = call i32 @Gia_ObjFanin1Copy(ptr noundef %50)
  %52 = call i32 @Gia_ManAppendXorReal(ptr noundef %47, i32 noundef %49, i32 noundef %51)
  %53 = load ptr, ptr %9, align 8, !tbaa !12
  %54 = getelementptr inbounds nuw %struct.Gia_Obj_t_, ptr %53, i32 0, i32 1
  store i32 %52, ptr %54, align 4, !tbaa !14
  br label %64

55:                                               ; preds = %30
  %56 = load ptr, ptr %5, align 8, !tbaa !3
  %57 = load ptr, ptr %9, align 8, !tbaa !12
  %58 = call i32 @Gia_ObjFanin0Copy(ptr noundef %57)
  %59 = load ptr, ptr %9, align 8, !tbaa !12
  %60 = call i32 @Gia_ObjFanin1Copy(ptr noundef %59)
  %61 = call i32 @Gia_ManAppendAnd(ptr noundef %56, i32 noundef %58, i32 noundef %60)
  %62 = load ptr, ptr %9, align 8, !tbaa !12
  %63 = getelementptr inbounds nuw %struct.Gia_Obj_t_, ptr %62, i32 0, i32 1
  store i32 %61, ptr %63, align 4, !tbaa !14
  br label %64

64:                                               ; preds = %55, %46
  br label %65

65:                                               ; preds = %64, %21
  %66 = load i32, ptr %10, align 4, !tbaa !8
  %67 = load i32, ptr %7, align 4, !tbaa !8
  %68 = icmp ne i32 %66, %67
  br i1 %68, label %69, label %82

69:                                               ; preds = %65
  %70 = load ptr, ptr %9, align 8, !tbaa !12
  %71 = getelementptr inbounds nuw %struct.Gia_Obj_t_, ptr %70, i32 0, i32 1
  %72 = load i32, ptr %71, align 4, !tbaa !14
  %73 = load ptr, ptr %8, align 8, !tbaa !10
  %74 = load i32, ptr %7, align 4, !tbaa !8
  %75 = call i32 @Vec_IntEntry(ptr noundef %73, i32 noundef %74)
  %76 = call i32 @Abc_LitIsCompl(i32 noundef %75)
  %77 = call i32 @Abc_LitNotCond(i32 noundef %72, i32 noundef %76)
  %78 = load ptr, ptr %6, align 8, !tbaa !3
  %79 = load i32, ptr %7, align 4, !tbaa !8
  %80 = call ptr @Gia_ManObj(ptr noundef %78, i32 noundef %79)
  %81 = getelementptr inbounds nuw %struct.Gia_Obj_t_, ptr %80, i32 0, i32 1
  store i32 %77, ptr %81, align 4, !tbaa !14
  br label %82

82:                                               ; preds = %69, %65
  call void @llvm.lifetime.end.p0(i64 4, ptr %10) #11
  call void @llvm.lifetime.end.p0(i64 8, ptr %9) #11
  ret void
}