; Function Attrs: nounwind uwtable
define void @Acec_ManDerive_rec(ptr noundef %0, ptr noundef %1, i32 noundef %2, ptr noundef %3) local_unnamed_addr #0 {
  %5 = getelementptr i8, ptr %3, i64 8
  %.val = load ptr, ptr %5, align 8, !tbaa !3
  %6 = sext i32 %2 to i64
  %7 = getelementptr inbounds i32, ptr %.val, i64 %6
  %8 = load i32, ptr %7, align 4, !tbaa !10
  %9 = lshr i32 %8, 1
  %10 = icmp slt i32 %8, 0
  %spec.select = select i1 %10, i32 %2, i32 %9
  %11 = getelementptr i8, ptr %1, i64 32
  %.val38 = load ptr, ptr %11, align 8, !tbaa !11
  %12 = sext i32 %spec.select to i64
  %13 = getelementptr inbounds %struct.Gia_Obj_t_, ptr %.val38, i64 %12
  %14 = getelementptr inbounds nuw i8, ptr %13, i64 8
  %15 = load i32, ptr %14, align 4, !tbaa !30
  %.not = icmp eq i32 %15, -1
  br i1 %.not, label %16, label %123

16:                                               ; preds = %4
  %.val40 = load i64, ptr %13, align 4
  %17 = trunc i64 %.val40 to i32
  %18 = and i32 %17, 536870911
  %19 = sub nsw i32 %spec.select, %18
  tail call void @Acec_ManDerive_rec(ptr noundef %0, ptr noundef nonnull %1, i32 noundef %19, ptr noundef nonnull %3)
  %.val41 = load i64, ptr %13, align 4
  %20 = lshr i64 %.val41, 32
  %21 = trunc nuw i64 %20 to i32
  %22 = and i32 %21, 536870911
  %23 = sub nsw i32 %spec.select, %22
  tail call void @Acec_ManDerive_rec(ptr noundef %0, ptr noundef nonnull %1, i32 noundef %23, ptr noundef nonnull %3)
  %.val42 = load i64, ptr %13, align 4
  %24 = and i64 %.val42, 2147483648
  %.not.i.i = icmp ne i64 %24, 0
  %25 = and i64 %.val42, 536870911
  %26 = icmp eq i64 %25, 536870911
  %narrow.i.not.i = or i1 %.not.i.i, %26
  %.pre = trunc i64 %.val42 to i32
  br i1 %narrow.i.not.i, label %.Gia_ObjIsXor.exit.thread_crit_edge, label %Gia_ObjIsXor.exit

.Gia_ObjIsXor.exit.thread_crit_edge:              ; preds = %16
  %.pre45 = lshr i64 %.val42, 32
  br label %Gia_ObjIsXor.exit.thread

Gia_ObjIsXor.exit:                                ; preds = %16
  %27 = and i32 %.pre, 536870911
  %28 = lshr i64 %.val42, 32
  %29 = trunc nuw i64 %28 to i32
  %30 = and i32 %29, 536870911
  %.not44 = icmp samesign ult i32 %27, %30
  br i1 %.not44, label %31, label %Gia_ObjIsXor.exit.thread

31:                                               ; preds = %Gia_ObjIsXor.exit
  %32 = sub nsw i64 0, %25
  %33 = getelementptr inbounds %struct.Gia_Obj_t_, ptr %13, i64 %32, i32 1
  %34 = load i32, ptr %33, align 4, !tbaa !30
  %35 = lshr i32 %.pre, 29
  %36 = xor i32 %34, %35
  %37 = and i64 %28, 536870911
  %38 = sub nsw i64 0, %37
  %39 = getelementptr inbounds %struct.Gia_Obj_t_, ptr %13, i64 %38, i32 1
  %40 = load i32, ptr %39, align 4, !tbaa !30
  %41 = lshr i64 %.val42, 61
  %42 = trunc nuw nsw i64 %41 to i32
  %43 = xor i32 %40, %42
  %44 = tail call fastcc ptr @Gia_ManAppendObj(ptr noundef %0)
  %45 = ashr i32 %34, 1
  %46 = ashr i32 %40, 1
  %47 = icmp sgt i32 %45, %46
  %48 = getelementptr i8, ptr %0, i64 32
  %.val.i = load ptr, ptr %48, align 8, !tbaa !11
  %49 = ptrtoint ptr %44 to i64
  %50 = ptrtoint ptr %.val.i to i64
  %51 = sub i64 %49, %50
  %52 = sdiv exact i64 %51, 12
  %53 = trunc i64 %52 to i32
  %54 = sub nsw i32 %53, %45
  %55 = load i64, ptr %44, align 4
  %56 = and i32 %54, 536870911
  %57 = zext nneg i32 %56 to i64
  br i1 %47, label %58, label %79

58:                                               ; preds = %31
  %59 = and i64 %55, -1073741824
  %60 = shl i32 %36, 29
  %61 = and i32 %60, 536870912
  %62 = zext nneg i32 %61 to i64
  %63 = or disjoint i64 %59, %62
  %64 = or disjoint i64 %63, %57
  store i64 %64, ptr %44, align 4
  %.val29.i = load ptr, ptr %48, align 8, !tbaa !11
  %65 = ptrtoint ptr %.val29.i to i64
  %66 = sub i64 %49, %65
  %67 = sdiv exact i64 %66, 12
  %68 = trunc i64 %67 to i32
  %69 = sub nsw i32 %68, %46
  %70 = and i32 %69, 536870911
  %71 = zext nneg i32 %70 to i64
  %72 = shl nuw nsw i64 %71, 32
  %73 = and i64 %64, -4611686014132420609
  %74 = or disjoint i64 %72, %73
  %75 = and i32 %43, 1
  %76 = zext nneg i32 %75 to i64
  %77 = shl nuw nsw i64 %76, 61
  %78 = or disjoint i64 %74, %77
  br label %Gia_ManAppendXorReal.exit

79:                                               ; preds = %31
  %80 = shl nuw nsw i64 %57, 32
  %81 = and i64 %55, -4611686014132420609
  %82 = or disjoint i64 %80, %81
  %83 = and i32 %36, 1
  %84 = zext nneg i32 %83 to i64
  %85 = shl nuw nsw i64 %84, 61
  %86 = or disjoint i64 %82, %85
  store i64 %86, ptr %44, align 4
  %.val31.i = load ptr, ptr %48, align 8, !tbaa !11
  %87 = ptrtoint ptr %.val31.i to i64
  %88 = sub i64 %49, %87
  %89 = sdiv exact i64 %88, 12
  %90 = trunc i64 %89 to i32
  %91 = sub nsw i32 %90, %46
  %92 = and i32 %91, 536870911
  %93 = zext nneg i32 %92 to i64
  %94 = and i64 %86, -1073741824
  %95 = shl i32 %43, 29
  %96 = and i32 %95, 536870912
  %97 = zext nneg i32 %96 to i64
  %98 = or disjoint i64 %94, %97
  %99 = or disjoint i64 %98, %93
  br label %Gia_ManAppendXorReal.exit

Gia_ManAppendXorReal.exit:                        ; preds = %58, %79
  %storemerge.i = phi i64 [ %99, %79 ], [ %78, %58 ]
  store i64 %storemerge.i, ptr %44, align 4
  %100 = getelementptr inbounds nuw i8, ptr %0, i64 48
  %101 = load i32, ptr %100, align 8, !tbaa !32
  %102 = add nsw i32 %101, 1
  store i32 %102, ptr %100, align 8, !tbaa !32
  %.val32.i = load ptr, ptr %48, align 8, !tbaa !11
  %103 = ptrtoint ptr %.val32.i to i64
  %104 = sub i64 %49, %103
  %105 = sdiv exact i64 %104, 12
  %106 = trunc i64 %105 to i32
  %107 = shl i32 %106, 1
  br label %.sink.split

Gia_ObjIsXor.exit.thread:                         ; preds = %.Gia_ObjIsXor.exit.thread_crit_edge, %Gia_ObjIsXor.exit
  %.pre-phi46 = phi i64 [ %.pre45, %.Gia_ObjIsXor.exit.thread_crit_edge ], [ %28, %Gia_ObjIsXor.exit ]
  %108 = sub nsw i64 0, %25
  %109 = getelementptr inbounds %struct.Gia_Obj_t_, ptr %13, i64 %108, i32 1
  %110 = load i32, ptr %109, align 4, !tbaa !30
  %111 = lshr i32 %.pre, 29
  %112 = and i32 %111, 1
  %113 = xor i32 %110, %112
  %114 = and i64 %.pre-phi46, 536870911
  %115 = sub nsw i64 0, %114
  %116 = getelementptr inbounds %struct.Gia_Obj_t_, ptr %13, i64 %115, i32 1
  %117 = load i32, ptr %116, align 4, !tbaa !30
  %118 = lshr i64 %.val42, 61
  %119 = trunc nuw nsw i64 %118 to i32
  %120 = and i32 %119, 1
  %121 = xor i32 %117, %120
  %122 = tail call fastcc i32 @Gia_ManAppendAnd(ptr noundef %0, i32 noundef %113, i32 noundef %121)
  br label %.sink.split

.sink.split:                                      ; preds = %Gia_ObjIsXor.exit.thread, %Gia_ManAppendXorReal.exit
  %.sink = phi i32 [ %107, %Gia_ManAppendXorReal.exit ], [ %122, %Gia_ObjIsXor.exit.thread ]
  store i32 %.sink, ptr %14, align 4, !tbaa !30
  br label %123

123:                                              ; preds = %.sink.split, %4
  %124 = phi i32 [ %15, %4 ], [ %.sink, %.sink.split ]
  %.not35 = icmp eq i32 %spec.select, %2
  br i1 %.not35, label %131, label %125

125:                                              ; preds = %123
  %.val37 = load ptr, ptr %5, align 8, !tbaa !3
  %126 = getelementptr inbounds i32, ptr %.val37, i64 %6
  %127 = load i32, ptr %126, align 4, !tbaa !10
  %128 = and i32 %127, 1
  %129 = xor i32 %128, %124
  %.val39 = load ptr, ptr %11, align 8, !tbaa !11
  %130 = getelementptr inbounds %struct.Gia_Obj_t_, ptr %.val39, i64 %6, i32 1
  store i32 %129, ptr %130, align 4, !tbaa !30
  br label %131

131:                                              ; preds = %125, %123
  ret void
}